(lp0
(lp1
I295
aS'0'
p2
aa(lp3
I327
ag2
aa(lp4
I359
aS'1'
p5
aa(lp6
I391
ag5
aa(lp7
I423
ag2
aa(lp8
I455
ag2
aa(lp9
I487
ag2
aa(lp10
I519
ag2
aa(lp11
I551
ag2
aa(lp12
I583
ag5
aa(lp13
I615
ag2
aa(lp14
I647
ag5
aa(lp15
I679
ag2
aa(lp16
I711
ag2
aa(lp17
I743
ag2
aa(lp18
I775
ag2
aa(lp19
I807
ag2
aa(lp20
I839
ag2
aa(lp21
I871
ag2
aa(lp22
I903
ag2
aa(lp23
I935
ag5
aa(lp24
I967
ag5
aa(lp25
I999
ag2
aa(lp26
I1031
ag2
aa(lp27
I1063
ag2
aa(lp28
I1095
ag2
aa(lp29
I1127
ag5
aa(lp30
I1159
ag2
aa(lp31
I1191
ag5
aa(lp32
I1223
ag2
aa(lp33
I1255
ag2
aa(lp34
I1287
ag5
aa(lp35
I1319
ag5
aa(lp36
I1351
ag2
aa(lp37
I1383
ag2
aa(lp38
I1415
ag5
aa(lp39
I1447
ag2
aa(lp40
I1479
ag5
aa(lp41
I1511
ag2
aa(lp42
I1543
ag5
aa(lp43
I1575
ag2
aa(lp44
I1607
ag2
aa(lp45
I1639
ag2
aa(lp46
I1671
ag2
aa(lp47
I1703
ag5
aa(lp48
I1735
ag5
aa(lp49
I1767
ag2
aa(lp50
I1799
ag2
aa(lp51
I1831
ag2
aa(lp52
I1863
ag2
aa(lp53
I1895
ag5
aa(lp54
I1927
ag5
aa(lp55
I1959
ag2
aa(lp56
I1991
ag2
aa(lp57
I2023
ag2
aa(lp58
I2055
ag2
aa(lp59
I2087
ag5
aa(lp60
I2119
ag2
aa(lp61
I2151
ag5
aa(lp62
I2183
ag2
aa(lp63
I2215
ag2
aa(lp64
I2247
ag2
aa(lp65
I2279
ag5
aa(lp66
I2311
ag2
aa(lp67
I2343
ag2
aa(lp68
I2375
ag5
aa(lp69
I2407
ag5
aa(lp70
I2439
ag2
aa(lp71
I2471
ag2
aa(lp72
I2503
ag2
aa(lp73
I2535
ag5
aa(lp74
I2567
ag2
aa(lp75
I2599
ag2
aa(lp76
I2631
ag5
aa(lp77
I2663
ag5
aa(lp78
I2695
ag2
aa(lp79
I2727
ag2
aa(lp80
I2759
ag2
aa(lp81
I2791
ag2
aa(lp82
I2823
ag5
aa(lp83
I2855
ag2
aa(lp84
I2887
ag2
aa(lp85
I2919
ag5
aa(lp86
I2951
ag2
aa(lp87
I2983
ag2
aa(lp88
I3015
ag5
aa(lp89
I3047
ag2
aa(lp90
I3079
ag5
aa(lp91
I3111
ag2
aa(lp92
I3143
ag2
aa(lp93
I3175
ag2
aa(lp94
I3207
ag5
aa(lp95
I3239
ag2
aa(lp96
I3271
ag5
aa(lp97
I3303
ag2
aa(lp98
I3335
ag2
aa(lp99
I3367
ag2
aa(lp100
I3399
ag5
aa(lp101
I3431
ag2
aa(lp102
I3463
ag2
aa(lp103
I3495
ag2
aa(lp104
I3527
ag2
aa(lp105
I3559
ag5
aa(lp106
I3591
ag2
aa(lp107
I3623
ag5
aa(lp108
I3655
ag5
aa(lp109
I3687
ag2
aa(lp110
I3719
ag5
aa(lp111
I3751
ag2
aa(lp112
I3783
ag5
aa(lp113
I3815
ag2
aa(lp114
I3847
ag5
aa(lp115
I3879
ag2
aa(lp116
I3911
ag2
aa(lp117
I3943
ag2
aa(lp118
I3975
ag2
aa(lp119
I4007
ag5
aa(lp120
I4039
ag5
aa(lp121
I4071
ag2
aa(lp122
I4103
ag2
aa(lp123
I4135
ag2
aa(lp124
I4167
ag2
aa(lp125
I4199
ag2
aa(lp126
I4231
ag5
aa(lp127
I4263
ag2
aa(lp128
I4295
ag5
aa(lp129
I4327
ag2
aa(lp130
I4359
ag2
aa(lp131
I4391
ag2
aa(lp132
I4423
ag2
aa(lp133
I4455
ag2
aa(lp134
I4487
ag2
aa(lp135
I4519
ag2
aa(lp136
I4551
ag2
aa(lp137
I4583
ag5
aa(lp138
I4615
ag5
aa(lp139
I4647
ag2
aa(lp140
I4679
ag2
aa(lp141
I4711
ag2
aa(lp142
I4743
ag2
aa(lp143
I4775
ag5
aa(lp144
I4807
ag2
aa(lp145
I4839
ag5
aa(lp146
I4871
ag2
aa(lp147
I4903
ag2
aa(lp148
I4935
ag5
aa(lp149
I4967
ag5
aa(lp150
I4999
ag2
aa(lp151
I5031
ag2
aa(lp152
I5063
ag5
aa(lp153
I5095
ag2
aa(lp154
I5127
ag5
aa(lp155
I5159
ag2
aa(lp156
I5191
ag5
aa(lp157
I5223
ag2
aa(lp158
I5255
ag2
aa(lp159
I5287
ag2
aa(lp160
I5319
ag2
aa(lp161
I5351
ag5
aa(lp162
I5383
ag5
aa(lp163
I5415
ag2
aa(lp164
I5447
ag2
aa(lp165
I5479
ag2
aa(lp166
I5511
ag2
aa(lp167
I5543
ag5
aa(lp168
I5575
ag5
aa(lp169
I5607
ag2
aa(lp170
I5639
ag2
aa(lp171
I5671
ag2
aa(lp172
I5703
ag2
aa(lp173
I5735
ag5
aa(lp174
I5767
ag2
aa(lp175
I5799
ag5
aa(lp176
I5831
ag2
aa(lp177
I5863
ag2
aa(lp178
I5895
ag2
aa(lp179
I5927
ag5
aa(lp180
I5959
ag2
aa(lp181
I5991
ag2
aa(lp182
I6023
ag5
aa(lp183
I6055
ag5
aa(lp184
I6087
ag2
aa(lp185
I6119
ag2
aa(lp186
I6151
ag2
aa(lp187
I6183
ag5
aa(lp188
I6215
ag2
aa(lp189
I6247
ag2
aa(lp190
I6279
ag5
aa(lp191
I6311
ag5
aa(lp192
I6343
ag2
aa(lp193
I6375
ag2
aa(lp194
I6407
ag2
aa(lp195
I6439
ag2
aa(lp196
I6471
ag5
aa(lp197
I6503
ag2
aa(lp198
I6535
ag2
aa(lp199
I6567
ag5
aa(lp200
I6599
ag2
aa(lp201
I6631
ag2
aa(lp202
I6663
ag5
aa(lp203
I6695
ag2
aa(lp204
I6727
ag5
aa(lp205
I6759
ag2
aa(lp206
I6791
ag2
aa(lp207
I6823
ag2
aa(lp208
I6855
ag5
aa(lp209
I6887
ag2
aa(lp210
I6919
ag5
aa(lp211
I6951
ag2
aa(lp212
I6983
ag2
aa(lp213
I7015
ag2
aa(lp214
I7047
ag5
aa(lp215
I7079
ag2
aa(lp216
I7111
ag2
aa(lp217
I7143
ag2
aa(lp218
I7175
ag2
aa(lp219
I7207
ag5
aa(lp220
I7239
ag2
aa(lp221
I7271
ag5
aa(lp222
I7303
ag5
aa(lp223
I7335
ag2
aa(lp224
I7367
ag5
aa(lp225
I7399
ag2
aa(lp226
I7431
ag5
aa(lp227
I7463
ag2
aa(lp228
I7495
ag5
aa(lp229
I7527
ag2
aa(lp230
I7559
ag2
aa.